target datalayout = "e-m:e-p270:32:32-p271:32:32-p272:64:64-i64:64-i128:128-f80:128-n8:16:32:64-S128"
target triple = "x86_64-pc-linux-gnu"

%class.ShenandoahTimingsTracker = type { ptr, i32, i32, double }
%class.ShenandoahGCPhase = type { %class.ShenandoahTimingsTracker, ptr }
%class.ShenandoahSTWMark = type <{ %class.ShenandoahMark, %class.ShenandoahSTWRootScanner, %class.TaskTerminator, i8, [7 x i8] }>
%class.ShenandoahMark = type { ptr }
%class.ShenandoahSTWRootScanner = type <{ %class.ShenandoahRootProcessor, %class.ShenandoahThreadRoots, %class.ShenandoahCodeCacheRoots, %class.ShenandoahClassLoaderDataRoots, %class.ShenandoahVMRoots, i8, [7 x i8] }>
%class.ShenandoahRootProcessor = type { ptr, %class.ShenandoahGCWorkerPhase }
%class.ShenandoahGCWorkerPhase = type <{ ptr, i32, [4 x i8] }>
%class.ShenandoahThreadRoots = type <{ i32, i8, [3 x i8] }>
%class.ShenandoahCodeCacheRoots = type { i32, %class.ShenandoahCodeRootsIterator }
%class.ShenandoahCodeRootsIterator = type { ptr }
%class.ShenandoahClassLoaderDataRoots = type { %struct.ShenandoahSharedSemaphore, i32 }
%struct.ShenandoahSharedSemaphore = type { [64 x i8], i8, [64 x i8] }
%class.ShenandoahVMRoots = type <{ %class.OopStorageSetStrongParState, i32, [4 x i8] }>
%class.OopStorageSetStrongParState = type { %class.OopStorageSetParState }
%class.OopStorageSetParState = type { %struct.ValueObjArray }
%struct.ValueObjArray = type { [5 x ptr], %class.ValueObjBlock }
%class.ValueObjBlock = type { %"class.OopStorage::ParState", %class.ValueObjBlock.1 }
%"class.OopStorage::ParState" = type { %"class.OopStorage::BasicParState" }
%"class.OopStorage::BasicParState" = type { ptr, ptr, i64, i64, i32, i8, i64 }
%class.ValueObjBlock.1 = type { %"class.OopStorage::ParState", %class.ValueObjBlock.2 }
%class.ValueObjBlock.2 = type { %"class.OopStorage::ParState", %class.ValueObjBlock.3 }
%class.ValueObjBlock.3 = type { %"class.OopStorage::ParState", %class.ValueObjBlock.4 }
%class.ValueObjBlock.4 = type <{ %"class.OopStorage::ParState", %class.ValueObjBlock.5, [7 x i8] }>
%class.ValueObjBlock.5 = type { i8 }
%class.TaskTerminator = type { i32, ptr, [128 x i8], i32, [124 x i8], %class.Monitor, ptr }
%class.Monitor = type { %class.Mutex }
%class.Mutex = type { ptr, %class.PlatformMonitor, ptr }
%class.PlatformMonitor = type { %class.PlatformMutex, %union.pthread_cond_t }
%class.PlatformMutex = type { %union.pthread_mutex_t }
%union.pthread_mutex_t = type { %struct.__pthread_mutex_s }
%struct.__pthread_mutex_s = type { i32, i32, i32, i32, i32, i16, i16, %struct.__pthread_internal_list }
%struct.__pthread_internal_list = type { ptr, ptr }
%union.pthread_cond_t = type { %struct.__pthread_cond_s }
%struct.__pthread_cond_s = type { %union.__atomic_wide_counter, %union.__atomic_wide_counter, [2 x i32], [2 x i32], i32, i32, [2 x i32] }
%union.__atomic_wide_counter = type { i64 }

; Function Attrs: mustprogress nounwind uwtable
define linkonce_odr hidden void @_ZN13ValueObjBlockIN10OopStorage8ParStateILb0ELb0EEELi1EED2Ev(ptr noundef nonnull align 8 dereferenceable(49) %0) unnamed_addr #1 comdat align 2 {
  %2 = alloca ptr, align 8
  store ptr %0, ptr %2, align 8
  %3 = load ptr, ptr %2, align 8
  %4 = getelementptr inbounds %class.ValueObjBlock.4, ptr %3, i32 0, i32 0
  call void @_ZN10OopStorage8ParStateILb0ELb0EED2Ev(ptr noundef nonnull align 8 dereferenceable(48) %4) #8
  ret void
}

; Function Attrs: mustprogress nounwind uwtable
define linkonce_odr hidden void @_ZN13ValueObjBlockIN10OopStorage8ParStateILb0ELb0EEELi2EED2Ev(ptr noundef nonnull align 8 dereferenceable(104) %0) unnamed_addr #1 comdat align 2 {
  %2 = alloca ptr, align 8
  store ptr %0, ptr %2, align 8
  %3 = load ptr, ptr %2, align 8
  %4 = getelementptr inbounds %class.ValueObjBlock.3, ptr %3, i32 0, i32 1
  call void @_ZN13ValueObjBlockIN10OopStorage8ParStateILb0ELb0EEELi1EED2Ev(ptr noundef nonnull align 8 dereferenceable(49) %4) #8
  %5 = getelementptr inbounds %class.ValueObjBlock.3, ptr %3, i32 0, i32 0
  call void @_ZN10OopStorage8ParStateILb0ELb0EED2Ev(ptr noundef nonnull align 8 dereferenceable(48) %5) #8
  ret void
}

; Function Attrs: mustprogress nounwind uwtable
define linkonce_odr hidden void @_ZN13ValueObjBlockIN10OopStorage8ParStateILb0ELb0EEELi3EED2Ev(ptr noundef nonnull align 8 dereferenceable(152) %0) unnamed_addr #1 comdat align 2 {
  %2 = alloca ptr, align 8
  store ptr %0, ptr %2, align 8
  %3 = load ptr, ptr %2, align 8
  %4 = getelementptr inbounds %class.ValueObjBlock.2, ptr %3, i32 0, i32 1
  call void @_ZN13ValueObjBlockIN10OopStorage8ParStateILb0ELb0EEELi2EED2Ev(ptr noundef nonnull align 8 dereferenceable(104) %4) #8
  %5 = getelementptr inbounds %class.ValueObjBlock.2, ptr %3, i32 0, i32 0
  call void @_ZN10OopStorage8ParStateILb0ELb0EED2Ev(ptr noundef nonnull align 8 dereferenceable(48) %5) #8
  ret void
}

; Function Attrs: mustprogress nounwind uwtable
define linkonce_odr hidden void @_ZN10OopStorage8ParStateILb0ELb0EED2Ev(ptr noundef nonnull align 8 dereferenceable(48) %0) unnamed_addr #1 comdat align 2 {
  %2 = alloca ptr, align 8
  store ptr %0, ptr %2, align 8
  %3 = load ptr, ptr %2, align 8
  %4 = getelementptr inbounds %"class.OopStorage::ParState", ptr %3, i32 0, i32 0
  call void @_ZN10OopStorage13BasicParStateD1Ev(ptr noundef nonnull align 8 dereferenceable(48) %4) #8
  ret void
}

; Function Attrs: mustprogress nounwind uwtable
define linkonce_odr hidden void @_ZN13ValueObjBlockIN10OopStorage8ParStateILb0ELb0EEELi4EED2Ev(ptr noundef nonnull align 8 dereferenceable(200) %0) unnamed_addr #1 comdat align 2 {
  %2 = alloca ptr, align 8
  store ptr %0, ptr %2, align 8
  %3 = load ptr, ptr %2, align 8
  %4 = getelementptr inbounds %class.ValueObjBlock.1, ptr %3, i32 0, i32 1
  call void @_ZN13ValueObjBlockIN10OopStorage8ParStateILb0ELb0EEELi3EED2Ev(ptr noundef nonnull align 8 dereferenceable(152) %4) #8
  %5 = getelementptr inbounds %class.ValueObjBlock.1, ptr %3, i32 0, i32 0
  call void @_ZN10OopStorage8ParStateILb0ELb0EED2Ev(ptr noundef nonnull align 8 dereferenceable(48) %5) #8
  ret void
}

; Function Attrs: mustprogress nounwind uwtable
define linkonce_odr hidden void @_ZN13ValueObjBlockIN10OopStorage8ParStateILb0ELb0EEELi5EED2Ev(ptr noundef nonnull align 8 dereferenceable(248) %0) unnamed_addr #1 comdat align 2 {
  %2 = alloca ptr, align 8
  store ptr %0, ptr %2, align 8
  %3 = load ptr, ptr %2, align 8
  %4 = getelementptr inbounds %class.ValueObjBlock, ptr %3, i32 0, i32 1
  call void @_ZN13ValueObjBlockIN10OopStorage8ParStateILb0ELb0EEELi4EED2Ev(ptr noundef nonnull align 8 dereferenceable(200) %4) #8
  %5 = getelementptr inbounds %class.ValueObjBlock, ptr %3, i32 0, i32 0
  call void @_ZN10OopStorage8ParStateILb0ELb0EED2Ev(ptr noundef nonnull align 8 dereferenceable(48) %5) #8
  ret void
}

; Function Attrs: mustprogress nounwind uwtable
define linkonce_odr hidden void @_ZN13ValueObjArrayIN10OopStorage8ParStateILb0ELb0EEELi5EED2Ev(ptr noundef nonnull align 8 dereferenceable(288) %0) unnamed_addr #1 comdat align 2 {
  %2 = alloca ptr, align 8
  store ptr %0, ptr %2, align 8
  %3 = load ptr, ptr %2, align 8
  %4 = getelementptr inbounds %struct.ValueObjArray, ptr %3, i32 0, i32 1
  call void @_ZN13ValueObjBlockIN10OopStorage8ParStateILb0ELb0EEELi5EED2Ev(ptr noundef nonnull align 8 dereferenceable(248) %4) #8
  ret void
}

; Function Attrs: mustprogress nounwind uwtable
define linkonce_odr hidden void @_ZN21OopStorageSetParStateIN13OopStorageSet8StrongIdELb0ELb0EED2Ev(ptr noundef nonnull align 8 dereferenceable(288) %0) unnamed_addr #1 comdat align 2 {
  %2 = alloca ptr, align 8
  store ptr %0, ptr %2, align 8
  %3 = load ptr, ptr %2, align 8
  %4 = getelementptr inbounds %class.OopStorageSetParState, ptr %3, i32 0, i32 0
  call void @_ZN13ValueObjArrayIN10OopStorage8ParStateILb0ELb0EEELi5EED2Ev(ptr noundef nonnull align 8 dereferenceable(288) %4) #8
  ret void
}

; Function Attrs: mustprogress nounwind uwtable
define linkonce_odr hidden void @_ZN27OopStorageSetStrongParStateILb0ELb0EED2Ev(ptr noundef nonnull align 8 dereferenceable(288) %0) unnamed_addr #1 comdat align 2 {
  %2 = alloca ptr, align 8
  store ptr %0, ptr %2, align 8
  %3 = load ptr, ptr %2, align 8
  call void @_ZN21OopStorageSetParStateIN13OopStorageSet8StrongIdELb0ELb0EED2Ev(ptr noundef nonnull align 8 dereferenceable(288) %3) #8
  ret void
}

; Function Attrs: mustprogress nounwind uwtable
define linkonce_odr hidden void @_ZN23ShenandoahRootProcessorD2Ev(ptr noundef nonnull align 8 dereferenceable(24) %0) unnamed_addr #1 comdat align 2 {
  %2 = alloca ptr, align 8
  store ptr %0, ptr %2, align 8
  %3 = load ptr, ptr %2, align 8
  %4 = getelementptr inbounds %class.ShenandoahRootProcessor, ptr %3, i32 0, i32 1
  call void @_ZN23ShenandoahGCWorkerPhaseD1Ev(ptr noundef nonnull align 8 dereferenceable(12) %4) #8
  ret void
}

; Function Attrs: mustprogress nounwind uwtable
define linkonce_odr hidden void @_ZN24ShenandoahCodeCacheRootsD2Ev(ptr noundef nonnull align 8 dereferenceable(16) %0) unnamed_addr #1 comdat align 2 {
  %2 = alloca ptr, align 8
  store ptr %0, ptr %2, align 8
  %3 = load ptr, ptr %2, align 8
  %4 = getelementptr inbounds %class.ShenandoahCodeCacheRoots, ptr %3, i32 0, i32 1
  call void @_ZN27ShenandoahCodeRootsIteratorD1Ev(ptr noundef nonnull align 8 dereferenceable(8) %4) #8
  ret void
}

; Function Attrs: mustprogress nounwind uwtable
define linkonce_odr hidden void @_ZN30ShenandoahClassLoaderDataRootsILb0EED2Ev(ptr noundef nonnull align 4 dereferenceable(136) %0) unnamed_addr #1 comdat align 2 {
  %2 = alloca ptr, align 8
  store ptr %0, ptr %2, align 8
  ret void
}

; Function Attrs: mustprogress nounwind uwtable
define linkonce_odr hidden void @_ZN17ShenandoahVMRootsILb0EED2Ev(ptr noundef nonnull align 8 dereferenceable(292) %0) unnamed_addr #1 comdat align 2 {
  %2 = alloca ptr, align 8
  store ptr %0, ptr %2, align 8
  %3 = load ptr, ptr %2, align 8
  %4 = getelementptr inbounds %class.ShenandoahVMRoots, ptr %3, i32 0, i32 0
  call void @_ZN27OopStorageSetStrongParStateILb0ELb0EED2Ev(ptr noundef nonnull align 8 dereferenceable(288) %4) #8
  ret void
}

; Function Attrs: mustprogress nounwind uwtable
define linkonce_odr hidden void @_ZN24ShenandoahSTWRootScannerD2Ev(ptr noundef nonnull align 8 dereferenceable(481) %0) unnamed_addr #1 comdat align 2 {
  %2 = alloca ptr, align 8
  store ptr %0, ptr %2, align 8
  %3 = load ptr, ptr %2, align 8
  %4 = getelementptr inbounds %class.ShenandoahSTWRootScanner, ptr %3, i32 0, i32 4
  call void @_ZN17ShenandoahVMRootsILb0EED2Ev(ptr noundef nonnull align 8 dereferenceable(292) %4) #8
  %5 = getelementptr inbounds %class.ShenandoahSTWRootScanner, ptr %3, i32 0, i32 3
  call void @_ZN30ShenandoahClassLoaderDataRootsILb0EED2Ev(ptr noundef nonnull align 4 dereferenceable(136) %5) #8
  %6 = getelementptr inbounds %class.ShenandoahSTWRootScanner, ptr %3, i32 0, i32 2
  call void @_ZN24ShenandoahCodeCacheRootsD2Ev(ptr noundef nonnull align 8 dereferenceable(16) %6) #8
  %7 = getelementptr inbounds %class.ShenandoahSTWRootScanner, ptr %3, i32 0, i32 1
  call void @_ZN21ShenandoahThreadRootsD1Ev(ptr noundef nonnull align 4 dereferenceable(5) %7) #8
  call void @_ZN23ShenandoahRootProcessorD2Ev(ptr noundef nonnull align 8 dereferenceable(24) %3) #8
  ret void
}

; Function Attrs: mustprogress nounwind uwtable
define linkonce_odr hidden void @_ZN17ShenandoahSTWMarkD2Ev(ptr noundef nonnull align 8 dereferenceable(881) %0) unnamed_addr #1 comdat align 2 {
  %2 = alloca ptr, align 8
  store ptr %0, ptr %2, align 8
  %3 = load ptr, ptr %2, align 8
  %4 = getelementptr inbounds %class.ShenandoahSTWMark, ptr %3, i32 0, i32 2
  call void @_ZN14TaskTerminatorD1Ev(ptr noundef nonnull align 8 dereferenceable(384) %4) #8
  %5 = getelementptr inbounds %class.ShenandoahSTWMark, ptr %3, i32 0, i32 1
  call void @_ZN24ShenandoahSTWRootScannerD2Ev(ptr noundef nonnull align 8 dereferenceable(481) %5) #8
  ret void
}

; Function Attrs: mustprogress nounwind uwtable
define hidden void @_ZN17ShenandoahDegenGC7op_markEv(ptr noundef nonnull align 8 dereferenceable(13) %0) #1 align 2 {
  %2 = alloca ptr, align 8
  %3 = alloca %class.ShenandoahGCPhase, align 8
  %4 = alloca %class.ShenandoahSTWMark, align 8
  store ptr %0, ptr %2, align 8
  call void @_ZN17ShenandoahGCPhaseC1EN22ShenandoahPhaseTimings5PhaseE(ptr noundef nonnull align 8 dereferenceable(32) %3, i32 noundef 141)
  call void @_ZN17ShenandoahSTWMarkC1Eb(ptr noundef nonnull align 8 dereferenceable(881) %4, i1 noundef zeroext false)
  call void @_ZN14ShenandoahMark5clearEv()
  call void @_ZN17ShenandoahSTWMark4markEv(ptr noundef nonnull align 8 dereferenceable(881) %4)
  call void @_ZN17ShenandoahSTWMarkD2Ev(ptr noundef nonnull align 8 dereferenceable(881) %4) #8
  call void @_ZN17ShenandoahGCPhaseD1Ev(ptr noundef nonnull align 8 dereferenceable(32) %3) #8
  ret void
}