; Function Attrs: mustprogress nounwind uwtable
define hidden void @_ZN17ShenandoahDegenGC7op_markEv(ptr nocapture nonnull readnone align 8 %0) local_unnamed_addr #1 align 2 {
  %2 = alloca %class.ShenandoahGCPhase, align 8
  %3 = alloca %class.ShenandoahSTWMark, align 8
  call void @_ZN17ShenandoahGCPhaseC1EN22ShenandoahPhaseTimings5PhaseE(ptr noundef nonnull align 8 dereferenceable(32) %2, i32 noundef 141) #8
  call void @_ZN17ShenandoahSTWMarkC1Eb(ptr noundef nonnull align 8 dereferenceable(881) %3, i1 noundef zeroext false) #8
  call void @_ZN14ShenandoahMark5clearEv() #8
  call void @_ZN17ShenandoahSTWMark4markEv(ptr noundef nonnull align 8 dereferenceable(881) %3) #8
  %4 = getelementptr inbounds i8, ptr %3, i64 496
  call void @_ZN14TaskTerminatorD1Ev(ptr noundef nonnull align 8 dereferenceable(384) %4) #8
  %5 = getelementptr inbounds i8, ptr %3, i64 232
  %6 = getelementptr inbounds i8, ptr %3, i64 280
  %7 = getelementptr inbounds i8, ptr %3, i64 328
  %8 = getelementptr inbounds i8, ptr %3, i64 376
  %9 = getelementptr inbounds i8, ptr %3, i64 424
  call void @_ZN10OopStorage13BasicParStateD1Ev(ptr noundef nonnull align 8 dereferenceable(48) %9) #8
  call void @_ZN10OopStorage13BasicParStateD1Ev(ptr noundef nonnull align 8 dereferenceable(48) %8) #8
  call void @_ZN10OopStorage13BasicParStateD1Ev(ptr noundef nonnull align 8 dereferenceable(48) %7) #8
  call void @_ZN10OopStorage13BasicParStateD1Ev(ptr noundef nonnull align 8 dereferenceable(48) %6) #8
  call void @_ZN10OopStorage13BasicParStateD1Ev(ptr noundef nonnull align 8 dereferenceable(48) %5) #8
  %10 = getelementptr inbounds i8, ptr %3, i64 48
  call void @_ZN27ShenandoahCodeRootsIteratorD1Ev(ptr noundef nonnull align 8 dereferenceable(8) %10) #8
  %11 = getelementptr inbounds i8, ptr %3, i64 32
  call void @_ZN21ShenandoahThreadRootsD1Ev(ptr noundef nonnull align 4 dereferenceable(5) %11) #8
  %12 = getelementptr inbounds i8, ptr %3, i64 16
  call void @_ZN23ShenandoahGCWorkerPhaseD1Ev(ptr noundef nonnull align 8 dereferenceable(12) %12) #8
  call void @_ZN17ShenandoahGCPhaseD1Ev(ptr noundef nonnull align 8 dereferenceable(32) %2) #8
  ret void
}